; Function Attrs: nofree nounwind uwtable
define noalias noundef ptr @gvCloneGVC(ptr noundef readonly captures(none) %0) local_unnamed_addr #0 {
  %2 = tail call noalias dereferenceable_or_null(584) ptr @calloc(i64 noundef 1, i64 noundef 584) #9
  %3 = icmp eq ptr %2, null
  br i1 %3, label %4, label %gv_alloc.exit

4:                                                ; preds = %1
  %5 = load ptr, ptr @stderr, align 8, !tbaa !3
  %6 = tail call i32 (ptr, ptr, ...) @fprintf(ptr noundef %5, ptr noundef nonnull @.str.1, i64 noundef 584) #10
  tail call fastcc void @graphviz_exit() #11
  unreachable

gv_alloc.exit:                                    ; preds = %1
  tail call void @llvm.memcpy.p0.p0.i64(ptr noundef nonnull align 8 dereferenceable(72) %2, ptr noundef nonnull align 8 dereferenceable(72) %0, i64 72, i1 false), !tbaa.struct !57
  %7 = getelementptr inbounds nuw i8, ptr %2, i64 120
  %8 = getelementptr inbounds nuw i8, ptr %0, i64 120
  tail call void @llvm.memcpy.p0.p0.i64(ptr noundef nonnull align 8 dereferenceable(40) %7, ptr noundef nonnull align 8 dereferenceable(40) %8, i64 40, i1 false)
  %9 = getelementptr inbounds nuw i8, ptr %2, i64 160
  %10 = getelementptr inbounds nuw i8, ptr %0, i64 160
  tail call void @llvm.memcpy.p0.p0.i64(ptr noundef nonnull align 8 dereferenceable(40) %9, ptr noundef nonnull align 8 dereferenceable(40) %10, i64 40, i1 false)
  %11 = getelementptr inbounds nuw i8, ptr %0, i64 200
  %12 = load ptr, ptr %11, align 8, !tbaa !41
  %13 = getelementptr inbounds nuw i8, ptr %2, i64 200
  store ptr %12, ptr %13, align 8, !tbaa !41
  ret ptr %2
}